target datalayout = "e-m:e-p270:32:32-p271:32:32-p272:64:64-i64:64-i128:128-f80:128-n8:16:32:64-S128"
target triple = "x86_64-pc-linux-gnu"

%struct.KDF_ARGON2 = type { ptr, i32, ptr, i32, ptr, i32, ptr, i32, ptr, i32, i32, i32, i32, i32, i32, i32, i32, ptr, i32, i32, i32, i32, ptr, ptr, ptr, ptr }

@.str = private unnamed_addr constant [51 x i8] c"../openssl/providers/implementations/kdfs/argon2.c\00", align 1
@__func__.kdf_argon2d_new = private unnamed_addr constant [16 x i8] c"kdf_argon2d_new\00", align 1

; Function Attrs: nounwind uwtable
define internal void @kdf_argon2_init(ptr noundef %0, i32 noundef %1) #0 {
  %3 = alloca ptr, align 8
  %4 = alloca i32, align 4
  %5 = alloca ptr, align 8
  store ptr %0, ptr %3, align 8, !tbaa !3
  store i32 %1, ptr %4, align 4, !tbaa !26
  call void @llvm.lifetime.start.p0(i64 8, ptr %5) #6
  %6 = load ptr, ptr %3, align 8, !tbaa !3
  %7 = getelementptr inbounds nuw %struct.KDF_ARGON2, ptr %6, i32 0, i32 22
  %8 = load ptr, ptr %7, align 8, !tbaa !7
  store ptr %8, ptr %5, align 8, !tbaa !27
  %9 = load ptr, ptr %3, align 8, !tbaa !3
  call void @llvm.memset.p0.i64(ptr align 8 %9, i8 0, i64 160, i1 false)
  %10 = load ptr, ptr %5, align 8, !tbaa !27
  %11 = load ptr, ptr %3, align 8, !tbaa !3
  %12 = getelementptr inbounds nuw %struct.KDF_ARGON2, ptr %11, i32 0, i32 22
  store ptr %10, ptr %12, align 8, !tbaa !7
  %13 = load ptr, ptr %3, align 8, !tbaa !3
  %14 = getelementptr inbounds nuw %struct.KDF_ARGON2, ptr %13, i32 0, i32 1
  store i32 64, ptr %14, align 8, !tbaa !33
  %15 = load ptr, ptr %3, align 8, !tbaa !3
  %16 = getelementptr inbounds nuw %struct.KDF_ARGON2, ptr %15, i32 0, i32 10
  store i32 3, ptr %16, align 4, !tbaa !40
  %17 = load ptr, ptr %3, align 8, !tbaa !3
  %18 = getelementptr inbounds nuw %struct.KDF_ARGON2, ptr %17, i32 0, i32 11
  store i32 8, ptr %18, align 8, !tbaa !36
  %19 = load ptr, ptr %3, align 8, !tbaa !3
  %20 = getelementptr inbounds nuw %struct.KDF_ARGON2, ptr %19, i32 0, i32 12
  store i32 1, ptr %20, align 4, !tbaa !35
  %21 = load ptr, ptr %3, align 8, !tbaa !3
  %22 = getelementptr inbounds nuw %struct.KDF_ARGON2, ptr %21, i32 0, i32 13
  store i32 1, ptr %22, align 8, !tbaa !34
  %23 = load ptr, ptr %3, align 8, !tbaa !3
  %24 = getelementptr inbounds nuw %struct.KDF_ARGON2, ptr %23, i32 0, i32 14
  store i32 19, ptr %24, align 4, !tbaa !46
  %25 = load i32, ptr %4, align 4, !tbaa !26
  %26 = load ptr, ptr %3, align 8, !tbaa !3
  %27 = getelementptr inbounds nuw %struct.KDF_ARGON2, ptr %26, i32 0, i32 16
  store i32 %25, ptr %27, align 4, !tbaa !25
  call void @llvm.lifetime.end.p0(i64 8, ptr %5) #6
  ret void
}

; Function Attrs: nounwind uwtable
define internal ptr @kdf_argon2d_new(ptr noundef %0) #0 {
  %2 = alloca ptr, align 8
  %3 = alloca ptr, align 8
  %4 = alloca ptr, align 8
  %5 = alloca i32, align 4
  store ptr %0, ptr %3, align 8, !tbaa !3
  call void @llvm.lifetime.start.p0(i64 8, ptr %4) #6
  %6 = call i32 @ossl_prov_is_running()
  %7 = icmp ne i32 %6, 0
  br i1 %7, label %9, label %8

8:                                                ; preds = %1
  store ptr null, ptr %2, align 8
  store i32 1, ptr %5, align 4
  br label %21

9:                                                ; preds = %1
  %10 = call noalias ptr @CRYPTO_zalloc(i64 noundef 160, ptr noundef @.str, i32 noundef 935)
  store ptr %10, ptr %4, align 8, !tbaa !3
  %11 = load ptr, ptr %4, align 8, !tbaa !3
  %12 = icmp eq ptr %11, null
  br i1 %12, label %13, label %14

13:                                               ; preds = %9
  call void @ERR_new()
  call void @ERR_set_debug(ptr noundef @.str, i32 noundef 937, ptr noundef @__func__.kdf_argon2d_new)
  call void (i32, i32, ptr, ...) @ERR_set_error(i32 noundef 57, i32 noundef 786688, ptr noundef null)
  store ptr null, ptr %2, align 8
  store i32 1, ptr %5, align 4
  br label %21

14:                                               ; preds = %9
  %15 = load ptr, ptr %3, align 8, !tbaa !3
  %16 = call ptr @ossl_prov_ctx_get0_libctx(ptr noundef %15)
  %17 = load ptr, ptr %4, align 8, !tbaa !3
  %18 = getelementptr inbounds nuw %struct.KDF_ARGON2, ptr %17, i32 0, i32 22
  store ptr %16, ptr %18, align 8, !tbaa !7
  %19 = load ptr, ptr %4, align 8, !tbaa !3
  call void @kdf_argon2_init(ptr noundef %19, i32 noundef 0)
  %20 = load ptr, ptr %4, align 8, !tbaa !3
  store ptr %20, ptr %2, align 8
  store i32 1, ptr %5, align 4
  br label %21

21:                                               ; preds = %14, %13, %8
  call void @llvm.lifetime.end.p0(i64 8, ptr %4) #6
  %22 = load ptr, ptr %2, align 8
  ret ptr %22
}