; Function Attrs: nounwind uwtable
define internal noalias ptr @kdf_argon2d_new(ptr noundef %0) #0 {
  %2 = tail call i32 @ossl_prov_is_running() #10
  %.not = icmp eq i32 %2, 0
  br i1 %.not, label %16, label %3

3:                                                ; preds = %1
  %4 = tail call noalias ptr @CRYPTO_zalloc(i64 noundef 160, ptr noundef nonnull @.str, i32 noundef 935) #10
  %5 = icmp eq ptr %4, null
  br i1 %5, label %6, label %7

6:                                                ; preds = %3
  tail call void @ERR_new() #10
  tail call void @ERR_set_debug(ptr noundef nonnull @.str, i32 noundef 937, ptr noundef nonnull @__func__.kdf_argon2d_new) #10
  tail call void (i32, i32, ptr, ...) @ERR_set_error(i32 noundef 57, i32 noundef 786688, ptr noundef null) #10
  br label %16

7:                                                ; preds = %3
  %8 = tail call ptr @ossl_prov_ctx_get0_libctx(ptr noundef %0) #10
  %9 = getelementptr inbounds nuw i8, ptr %4, i64 128
  tail call void @llvm.memset.p0.i64(ptr noundef nonnull align 8 dereferenceable(160) %4, i8 0, i64 160, i1 false)
  store ptr %8, ptr %9, align 8, !tbaa !3
  %10 = getelementptr inbounds nuw i8, ptr %4, i64 8
  store i32 64, ptr %10, align 8, !tbaa !13
  %11 = getelementptr inbounds nuw i8, ptr %4, i64 76
  store i32 3, ptr %11, align 4, !tbaa !14
  %12 = getelementptr inbounds nuw i8, ptr %4, i64 80
  store i32 8, ptr %12, align 8, !tbaa !15
  %13 = getelementptr inbounds nuw i8, ptr %4, i64 84
  store i32 1, ptr %13, align 4, !tbaa !16
  %14 = getelementptr inbounds nuw i8, ptr %4, i64 88
  store i32 1, ptr %14, align 8, !tbaa !17
  %15 = getelementptr inbounds nuw i8, ptr %4, i64 92
  store i32 19, ptr %15, align 4, !tbaa !18
  br label %16

16:                                               ; preds = %1, %7, %6
  %.0 = phi ptr [ null, %6 ], [ %4, %7 ], [ null, %1 ]
  ret ptr %.0
}